target datalayout = "e-m:e-p270:32:32-p271:32:32-p272:64:64-i64:64-i128:128-f80:128-n8:16:32:64-S128"
target triple = "x86_64-unknown-linux-gnu"

%"class.hermes::vm::GCCell" = type { %union.anon }
%union.anon = type { %"class.hermes::vm::KindAndSize" }
%"class.hermes::vm::KindAndSize" = type { i32 }
%"class.hermes::vm::StringPrimitive" = type { %"class.hermes::vm::VariableSizeRuntimeCell", i32 }
%"class.hermes::vm::VariableSizeRuntimeCell" = type { %"class.hermes::vm::GCCell" }
%"class.hermes::vm::HermesValue" = type { i64 }
%"class.hermes::vm::HandleBase" = type { ptr }
%"class.hermes::vm::Handle.177" = type { %"class.hermes::vm::HandleBase" }
%"class.hermes::vm::StringView" = type { %union.anon.187, i32, i32 }
%union.anon.187 = type { ptr }
%"struct.llvh::AlignedCharArray.189" = type { [8 x i8] }

; Function Attrs: mustprogress nounwind uwtable
define linkonce_odr hidden noundef ptr @_ZNK6hermes2vm11HermesValue10getPointerEv(ptr noundef nonnull align 8 dereferenceable(8) %this) #0 comdat align 2 {
entry:
  %this.addr = alloca ptr, align 8
  store ptr %this, ptr %this.addr, align 8
  %this1 = load ptr, ptr %this.addr, align 8
  %raw_ = getelementptr inbounds %"class.hermes::vm::HermesValue", ptr %this1, i32 0, i32 0
  %0 = load i64, ptr %raw_, align 8
  %and = and i64 %0, 281474976710655
  %1 = inttoptr i64 %and to ptr
  ret ptr %1
}

; Function Attrs: mustprogress nounwind uwtable
define linkonce_odr hidden noundef ptr @_ZNK6hermes2vm11HermesValue9getStringEv(ptr noundef nonnull align 8 dereferenceable(8) %this) #0 comdat align 2 {
entry:
  %this.addr = alloca ptr, align 8
  store ptr %this, ptr %this.addr, align 8
  %this1 = load ptr, ptr %this.addr, align 8
  %call = call noundef ptr @_ZNK6hermes2vm11HermesValue10getPointerEv(ptr noundef nonnull align 8 dereferenceable(8) %this1)
  ret ptr %call
}

; Function Attrs: mustprogress nounwind uwtable
define linkonce_odr hidden noundef i32 @_ZNK6hermes2vm11KindAndSize7getKindEv(ptr noundef nonnull align 4 dereferenceable(4) %this) #0 comdat align 2 {
entry:
  %this.addr = alloca ptr, align 8
  store ptr %this, ptr %this.addr, align 8
  %this1 = load ptr, ptr %this.addr, align 8
  %bf.load = load i32, ptr %this1, align 4
  %bf.lshr = lshr i32 %bf.load, 24
  ret i32 %bf.lshr
}

; Function Attrs: mustprogress nounwind uwtable
define linkonce_odr hidden noundef ptr @_ZN6hermes2vm16StringTraitsImplINS0_15StringPrimitiveEE6decodeENS0_11HermesValueE(i64 %value.coerce) #0 comdat align 2 {
entry:
  %value = alloca %"class.hermes::vm::HermesValue", align 8
  %coerce.dive = getelementptr inbounds %"class.hermes::vm::HermesValue", ptr %value, i32 0, i32 0
  store i64 %value.coerce, ptr %coerce.dive, align 8
  %call = call noundef ptr @_ZNK6hermes2vm11HermesValue9getStringEv(ptr noundef nonnull align 8 dereferenceable(8) %value)
  ret ptr %call
}

; Function Attrs: mustprogress nounwind uwtable
define linkonce_odr hidden noundef i32 @_ZNK6hermes2vm6GCCell7getKindEv(ptr noundef nonnull align 4 dereferenceable(4) %this) #0 comdat align 2 {
entry:
  %this.addr = alloca ptr, align 8
  store ptr %this, ptr %this.addr, align 8
  %this1 = load ptr, ptr %this.addr, align 8
  %0 = getelementptr inbounds %"class.hermes::vm::GCCell", ptr %this1, i32 0, i32 0
  %call = call noundef i32 @_ZNK6hermes2vm11KindAndSize7getKindEv(ptr noundef nonnull align 4 dereferenceable(4) %0)
  ret i32 %call
}

; Function Attrs: mustprogress nounwind uwtable
define linkonce_odr hidden noundef ptr @_ZN6hermes2vm16StringTraitsImplINS0_15StringPrimitiveEE5arrowERKNS0_11HermesValueE(ptr noundef nonnull align 8 dereferenceable(8) %value) #0 comdat align 2 {
entry:
  %value.addr = alloca ptr, align 8
  %res = alloca ptr, align 8
  %agg.tmp = alloca %"class.hermes::vm::HermesValue", align 8
  store ptr %value, ptr %value.addr, align 8
  %0 = load ptr, ptr %value.addr, align 8
  call void @llvm.memcpy.p0.p0.i64(ptr align 8 %agg.tmp, ptr align 8 %0, i64 8, i1 false)
  %coerce.dive = getelementptr inbounds %"class.hermes::vm::HermesValue", ptr %agg.tmp, i32 0, i32 0
  %1 = load i64, ptr %coerce.dive, align 8
  %call = call noundef ptr @_ZN6hermes2vm16StringTraitsImplINS0_15StringPrimitiveEE6decodeENS0_11HermesValueE(i64 %1)
  store ptr %call, ptr %res, align 8
  %2 = load ptr, ptr %res, align 8
  ret ptr %2
}

; Function Attrs: mustprogress nounwind uwtable
define linkonce_odr hidden noundef ptr @_ZNK6hermes2vm10HandleBase9handleRefEv(ptr noundef nonnull align 8 dereferenceable(8) %this) #0 comdat align 2 {
entry:
  %this.addr = alloca ptr, align 8
  store ptr %this, ptr %this.addr, align 8
  %this1 = load ptr, ptr %this.addr, align 8
  %handle_ = getelementptr inbounds %"class.hermes::vm::HandleBase", ptr %this1, i32 0, i32 0
  %0 = load ptr, ptr %handle_, align 8
  ret ptr %0
}

; Function Attrs: mustprogress nounwind uwtable
define linkonce_odr hidden noundef i32 @_ZNK6hermes2vm15StringPrimitive15getStringLengthEv(ptr noundef nonnull align 4 dereferenceable(8) %this) #0 comdat align 2 {
entry:
  %this.addr = alloca ptr, align 8
  store ptr %this, ptr %this.addr, align 8
  %this1 = load ptr, ptr %this.addr, align 8
  %lengthAndUniquedFlag_ = getelementptr inbounds %"class.hermes::vm::StringPrimitive", ptr %this1, i32 0, i32 1
  %0 = load i32, ptr %lengthAndUniquedFlag_, align 4
  %and = and i32 %0, 2147483647
  ret i32 %and
}

; Function Attrs: mustprogress nounwind uwtable
define linkonce_odr hidden noundef zeroext i1 @_ZNK6hermes2vm15StringPrimitive7isASCIIEv(ptr noundef nonnull align 4 dereferenceable(8) %this) #0 comdat align 2 {
entry:
  %this.addr = alloca ptr, align 8
  store ptr %this, ptr %this.addr, align 8
  %this1 = load ptr, ptr %this.addr, align 8
  %call = call noundef i32 @_ZNK6hermes2vm6GCCell7getKindEv(ptr noundef nonnull align 4 dereferenceable(4) %this1)
  %and = and i32 %call, 1
  %cmp = icmp eq i32 %and, 0
  ret i1 %cmp
}

; Function Attrs: mustprogress nounwind uwtable
define linkonce_odr hidden noundef ptr @_ZNK6hermes2vm6HandleINS0_15StringPrimitiveEEptEv(ptr noundef nonnull align 8 dereferenceable(8) %this) #0 comdat align 2 {
entry:
  %this.addr = alloca ptr, align 8
  store ptr %this, ptr %this.addr, align 8
  %this1 = load ptr, ptr %this.addr, align 8
  %call = call noundef ptr @_ZNK6hermes2vm10HandleBase9handleRefEv(ptr noundef nonnull align 8 dereferenceable(8) %this1)
  %call2 = call noundef ptr @_ZN6hermes2vm16StringTraitsImplINS0_15StringPrimitiveEE5arrowERKNS0_11HermesValueE(ptr noundef nonnull align 8 dereferenceable(8) %call)
  ret ptr %call2
}

; Function Attrs: mustprogress nounwind uwtable
define linkonce_odr hidden void @_ZN6hermes2vm10StringViewC2ENS0_6HandleINS0_15StringPrimitiveEEE(ptr noundef nonnull align 8 dereferenceable(16) %this, ptr %str.coerce) unnamed_addr #0 comdat align 2 {
entry:
  %str = alloca %"class.hermes::vm::Handle.177", align 8
  %this.addr = alloca ptr, align 8
  %coerce.dive = getelementptr inbounds %"class.hermes::vm::Handle.177", ptr %str, i32 0, i32 0
  %coerce.dive1 = getelementptr inbounds %"class.hermes::vm::HandleBase", ptr %coerce.dive, i32 0, i32 0
  store ptr %str.coerce, ptr %coerce.dive1, align 8
  store ptr %this, ptr %this.addr, align 8
  %this2 = load ptr, ptr %this.addr, align 8
  %startIndex_ = getelementptr inbounds %"class.hermes::vm::StringView", ptr %this2, i32 0, i32 1
  %bf.load = load i32, ptr %startIndex_, align 8
  %bf.clear = and i32 %bf.load, -1073741824
  %bf.set = or i32 %bf.clear, 0
  store i32 %bf.set, ptr %startIndex_, align 8
  %isHandle_ = getelementptr inbounds %"class.hermes::vm::StringView", ptr %this2, i32 0, i32 1
  %bf.load3 = load i32, ptr %isHandle_, align 8
  %bf.clear4 = and i32 %bf.load3, -1073741825
  %bf.set5 = or i32 %bf.clear4, 1073741824
  store i32 %bf.set5, ptr %isHandle_, align 8
  %isASCII_ = getelementptr inbounds %"class.hermes::vm::StringView", ptr %this2, i32 0, i32 1
  %call = call noundef ptr @_ZNK6hermes2vm6HandleINS0_15StringPrimitiveEEptEv(ptr noundef nonnull align 8 dereferenceable(8) %str)
  %call6 = call noundef zeroext i1 @_ZNK6hermes2vm15StringPrimitive7isASCIIEv(ptr noundef nonnull align 4 dereferenceable(8) %call)
  %conv = zext i1 %call6 to i32
  %bf.load7 = load i32, ptr %isASCII_, align 8
  %bf.value = and i32 %conv, 1
  %bf.shl = shl i32 %bf.value, 31
  %bf.clear8 = and i32 %bf.load7, 2147483647
  %bf.set9 = or i32 %bf.clear8, %bf.shl
  store i32 %bf.set9, ptr %isASCII_, align 8
  %length_ = getelementptr inbounds %"class.hermes::vm::StringView", ptr %this2, i32 0, i32 2
  %call10 = call noundef ptr @_ZNK6hermes2vm6HandleINS0_15StringPrimitiveEEptEv(ptr noundef nonnull align 8 dereferenceable(8) %str)
  %call11 = call noundef i32 @_ZNK6hermes2vm15StringPrimitive15getStringLengthEv(ptr noundef nonnull align 4 dereferenceable(8) %call10)
  store i32 %call11, ptr %length_, align 4
  %0 = getelementptr inbounds %"class.hermes::vm::StringView", ptr %this2, i32 0, i32 0
  %buffer = getelementptr inbounds %"struct.llvh::AlignedCharArray.189", ptr %0, i32 0, i32 0
  %arraydecay = getelementptr inbounds [8 x i8], ptr %buffer, i64 0, i64 0
  call void @llvm.memcpy.p0.p0.i64(ptr align 8 %arraydecay, ptr align 8 %str, i64 8, i1 false)
  ret void
}

; Function Attrs: mustprogress nounwind uwtable
define linkonce_odr hidden void @_ZN6hermes2vm7Runtime19potentiallyMoveHeapEv(ptr noundef nonnull align 8 dereferenceable(9832) %this) #0 comdat align 2 {
entry:
  %this.addr = alloca ptr, align 8
  store ptr %this, ptr %this.addr, align 8
  ret void
}

; Function Attrs: mustprogress nounwind uwtable
define hidden { ptr, i64 } @_ZN6hermes2vm15StringPrimitive26createStringViewMustBeFlatENS0_6HandleIS1_EE(ptr %self.coerce) #0 align 2 {
entry:
  %retval = alloca %"class.hermes::vm::StringView", align 8
  %self = alloca %"class.hermes::vm::Handle.177", align 8
  %agg.tmp = alloca %"class.hermes::vm::Handle.177", align 8
  %coerce.dive = getelementptr inbounds %"class.hermes::vm::Handle.177", ptr %self, i32 0, i32 0
  %coerce.dive1 = getelementptr inbounds %"class.hermes::vm::HandleBase", ptr %coerce.dive, i32 0, i32 0
  store ptr %self.coerce, ptr %coerce.dive1, align 8
  call void @llvm.memcpy.p0.p0.i64(ptr align 8 %agg.tmp, ptr align 8 %self, i64 8, i1 false)
  %coerce.dive2 = getelementptr inbounds %"class.hermes::vm::Handle.177", ptr %agg.tmp, i32 0, i32 0
  %coerce.dive3 = getelementptr inbounds %"class.hermes::vm::HandleBase", ptr %coerce.dive2, i32 0, i32 0
  %0 = load ptr, ptr %coerce.dive3, align 8
  call void @_ZN6hermes2vm10StringViewC2ENS0_6HandleINS0_15StringPrimitiveEEE(ptr noundef nonnull align 8 dereferenceable(16) %retval, ptr %0)
  %1 = load { ptr, i64 }, ptr %retval, align 8
  ret { ptr, i64 } %1
}

; Function Attrs: mustprogress nounwind uwtable
define linkonce_odr hidden ptr @_ZN6hermes2vm15StringPrimitive10ensureFlatERNS0_7RuntimeENS0_6HandleIS1_EE(ptr noundef nonnull align 8 dereferenceable(9832) %runtime, ptr %self.coerce) #0 comdat align 2 {
entry:
  %retval = alloca %"class.hermes::vm::Handle.177", align 8
  %self = alloca %"class.hermes::vm::Handle.177", align 8
  %runtime.addr = alloca ptr, align 8
  %coerce.dive = getelementptr inbounds %"class.hermes::vm::Handle.177", ptr %self, i32 0, i32 0
  %coerce.dive1 = getelementptr inbounds %"class.hermes::vm::HandleBase", ptr %coerce.dive, i32 0, i32 0
  store ptr %self.coerce, ptr %coerce.dive1, align 8
  store ptr %runtime, ptr %runtime.addr, align 8
  %0 = load ptr, ptr %runtime.addr, align 8
  call void @_ZN6hermes2vm7Runtime19potentiallyMoveHeapEv(ptr noundef nonnull align 8 dereferenceable(9832) %0)
  call void @llvm.memcpy.p0.p0.i64(ptr align 8 %retval, ptr align 8 %self, i64 8, i1 false)
  %coerce.dive2 = getelementptr inbounds %"class.hermes::vm::Handle.177", ptr %retval, i32 0, i32 0
  %coerce.dive3 = getelementptr inbounds %"class.hermes::vm::HandleBase", ptr %coerce.dive2, i32 0, i32 0
  %1 = load ptr, ptr %coerce.dive3, align 8
  ret ptr %1
}

; Function Attrs: mustprogress nounwind uwtable
define hidden { ptr, i64 } @_ZN6hermes2vm15StringPrimitive16createStringViewERNS0_7RuntimeENS0_6HandleIS1_EE(ptr noundef nonnull align 8 dereferenceable(9832) %runtime, ptr %self.coerce) #0 align 2 {
entry:
  %retval = alloca %"class.hermes::vm::StringView", align 8
  %self = alloca %"class.hermes::vm::Handle.177", align 8
  %runtime.addr = alloca ptr, align 8
  %agg.tmp = alloca %"class.hermes::vm::Handle.177", align 8
  %coerce = alloca %"class.hermes::vm::Handle.177", align 8
  %agg.tmp6 = alloca %"class.hermes::vm::Handle.177", align 8
  %coerce.dive = getelementptr inbounds %"class.hermes::vm::Handle.177", ptr %self, i32 0, i32 0
  %coerce.dive1 = getelementptr inbounds %"class.hermes::vm::HandleBase", ptr %coerce.dive, i32 0, i32 0
  store ptr %self.coerce, ptr %coerce.dive1, align 8
  store ptr %runtime, ptr %runtime.addr, align 8
  %0 = load ptr, ptr %runtime.addr, align 8
  call void @llvm.memcpy.p0.p0.i64(ptr align 8 %agg.tmp, ptr align 8 %self, i64 8, i1 false)
  %coerce.dive2 = getelementptr inbounds %"class.hermes::vm::Handle.177", ptr %agg.tmp, i32 0, i32 0
  %coerce.dive3 = getelementptr inbounds %"class.hermes::vm::HandleBase", ptr %coerce.dive2, i32 0, i32 0
  %1 = load ptr, ptr %coerce.dive3, align 8
  %call = call ptr @_ZN6hermes2vm15StringPrimitive10ensureFlatERNS0_7RuntimeENS0_6HandleIS1_EE(ptr noundef nonnull align 8 dereferenceable(9832) %0, ptr %1)
  %coerce.dive4 = getelementptr inbounds %"class.hermes::vm::Handle.177", ptr %coerce, i32 0, i32 0
  %coerce.dive5 = getelementptr inbounds %"class.hermes::vm::HandleBase", ptr %coerce.dive4, i32 0, i32 0
  store ptr %call, ptr %coerce.dive5, align 8
  call void @llvm.memcpy.p0.p0.i64(ptr align 8 %agg.tmp6, ptr align 8 %self, i64 8, i1 false)
  %coerce.dive7 = getelementptr inbounds %"class.hermes::vm::Handle.177", ptr %agg.tmp6, i32 0, i32 0
  %coerce.dive8 = getelementptr inbounds %"class.hermes::vm::HandleBase", ptr %coerce.dive7, i32 0, i32 0
  %2 = load ptr, ptr %coerce.dive8, align 8
  %call9 = call { ptr, i64 } @_ZN6hermes2vm15StringPrimitive26createStringViewMustBeFlatENS0_6HandleIS1_EE(ptr %2)
  %3 = getelementptr inbounds { ptr, i64 }, ptr %retval, i32 0, i32 0
  %4 = extractvalue { ptr, i64 } %call9, 0
  store ptr %4, ptr %3, align 8
  %5 = getelementptr inbounds { ptr, i64 }, ptr %retval, i32 0, i32 1
  %6 = extractvalue { ptr, i64 } %call9, 1
  store i64 %6, ptr %5, align 8
  %7 = load { ptr, i64 }, ptr %retval, align 8
  ret { ptr, i64 } %7
}