; Function Attrs: mustprogress nofree norecurse nosync nounwind willreturn memory(read, inaccessiblemem: none) uwtable
define hidden { ptr, i64 } @_ZN6hermes2vm15StringPrimitive16createStringViewERNS0_7RuntimeENS0_6HandleIS1_EE(ptr noundef nonnull readnone align 8 captures(none) dereferenceable(9832) %runtime, ptr %self.coerce) local_unnamed_addr #5 align 2 {
entry:
  %agg.tmp.sroa.0.0.copyload.i.i.i.i = load i64, ptr %self.coerce, align 8
  %and.i.i.i.i.i.i.i = and i64 %agg.tmp.sroa.0.0.copyload.i.i.i.i, 281474976710655
  %0 = inttoptr i64 %and.i.i.i.i.i.i.i to ptr
  %bf.load.i.i.i.i.i = load i32, ptr %0, align 4
  %1 = shl i32 %bf.load.i.i.i.i.i, 7
  %2 = and i32 %1, -2147483648
  %bf.set9.i.i = xor i32 %2, -1073741824
  %lengthAndUniquedFlag_.i.i.i = getelementptr inbounds nuw i8, ptr %0, i64 4
  %3 = load i32, ptr %lengthAndUniquedFlag_.i.i.i, align 4
  %and.i.i.i = and i32 %3, 2147483647
  %.fca.0.insert.i = insertvalue { ptr, i64 } poison, ptr %self.coerce, 0
  %retval.sroa.6.8.insert.ext.i = zext nneg i32 %and.i.i.i to i64
  %retval.sroa.6.8.insert.shift.i = shl nuw nsw i64 %retval.sroa.6.8.insert.ext.i, 32
  %retval.sroa.2.8.insert.ext.i = zext i32 %bf.set9.i.i to i64
  %retval.sroa.2.8.insert.insert.i = or disjoint i64 %retval.sroa.6.8.insert.shift.i, %retval.sroa.2.8.insert.ext.i
  %.fca.1.insert.i = insertvalue { ptr, i64 } %.fca.0.insert.i, i64 %retval.sroa.2.8.insert.insert.i, 1
  ret { ptr, i64 } %.fca.1.insert.i
}